target datalayout = "e-m:e-p270:32:32-p271:32:32-p272:64:64-i64:64-i128:128-f80:128-n8:16:32:64-S128"
target triple = "x86_64-pc-linux-gnu"

%"class.Ipopt::LowRankAugSystemSolver" = type <{ %"class.Ipopt::AugSystemSolver.base", [7 x i8], %"class.Ipopt::SmartPtr.14", i32, [4 x i8], double, i32, [4 x i8], double, i32, [4 x i8], double, i32, i32, double, i32, i32, double, i8, [7 x i8], %"class.Ipopt::SmartPtr.15", %"class.Ipopt::SmartPtr.15", %"class.Ipopt::SmartPtr.16", %"class.Ipopt::SmartPtr.16", %"class.Ipopt::SmartPtr.17", %"class.Ipopt::SmartPtr.18", i32, [4 x i8] }>
%"class.Ipopt::AugSystemSolver.base" = type { %"class.Ipopt::AlgorithmStrategyObject.base" }
%"class.Ipopt::AlgorithmStrategyObject.base" = type <{ %"class.Ipopt::ReferencedObject.base", [4 x i8], %"class.Ipopt::SmartPtr.10", %"class.Ipopt::SmartPtr.11", %"class.Ipopt::SmartPtr.12", %"class.Ipopt::SmartPtr.13", i8 }>
%"class.Ipopt::ReferencedObject.base" = type <{ ptr, i32 }>
%"class.Ipopt::SmartPtr.10" = type { ptr }
%"class.Ipopt::SmartPtr.11" = type { ptr }
%"class.Ipopt::SmartPtr.12" = type { ptr }
%"class.Ipopt::SmartPtr.13" = type { ptr }
%"class.Ipopt::SmartPtr.14" = type { ptr }
%"class.Ipopt::SmartPtr.15" = type { ptr }
%"class.Ipopt::SmartPtr.16" = type { ptr }
%"class.Ipopt::SmartPtr.17" = type { ptr }
%"class.Ipopt::SmartPtr.18" = type { ptr }

; Function Attrs: mustprogress nounwind uwtable
define linkonce_odr noundef ptr @_ZNK5Ipopt8SmartPtrINS_15AugSystemSolverEEptEv(ptr noundef nonnull align 8 dereferenceable(8) %0) #4 comdat align 2 {
  %2 = alloca ptr, align 8
  store ptr %0, ptr %2, align 8, !tbaa !60
  %3 = load ptr, ptr %2, align 8
  %4 = getelementptr inbounds nuw %"class.Ipopt::SmartPtr.14", ptr %3, i32 0, i32 0
  %5 = load ptr, ptr %4, align 8, !tbaa !62
  ret ptr %5
}

; Function Attrs: mustprogress uwtable
define noundef zeroext i1 @_ZNK5Ipopt22LowRankAugSystemSolver15ProvidesInertiaEv(ptr noundef nonnull align 8 dereferenceable(204) %0) unnamed_addr #6 align 2 {
  %2 = alloca ptr, align 8
  store ptr %0, ptr %2, align 8, !tbaa !18
  %3 = load ptr, ptr %2, align 8
  %4 = getelementptr inbounds nuw %"class.Ipopt::LowRankAugSystemSolver", ptr %3, i32 0, i32 2
  %5 = call noundef ptr @_ZNK5Ipopt8SmartPtrINS_15AugSystemSolverEEptEv(ptr noundef nonnull align 8 dereferenceable(8) %4)
  %6 = load ptr, ptr %5, align 8, !tbaa !22
  %7 = getelementptr inbounds ptr, ptr %6, i64 6
  %8 = load ptr, ptr %7, align 8
  %9 = call noundef zeroext i1 %8(ptr noundef nonnull align 8 dereferenceable(49) %5)
  ret i1 %9
}